; Function Attrs: mustprogress nounwind uwtable
define hidden noundef zeroext i1 @_ZN8PhaseCFG6is_CFGEP4Node(ptr nocapture noundef nonnull readnone align 8 dereferenceable(160) %0, ptr noundef %1) local_unnamed_addr #0 align 2 {
  %3 = load ptr, ptr %1, align 8
  %4 = getelementptr inbounds i8, ptr %3, i64 32
  %5 = load ptr, ptr %4, align 8
  %6 = tail call noundef ptr %5(ptr noundef nonnull align 8 dereferenceable(52) %1) #14
  %.not = icmp eq ptr %6, null
  br i1 %.not, label %7, label %_ZNK8PhaseCFG28is_control_proj_or_safepointEP4Node.exit

7:                                                ; preds = %2
  %8 = getelementptr inbounds i8, ptr %1, i64 44
  %9 = load i32, ptr %8, align 4
  %10 = and i32 %9, 63
  %11 = icmp eq i32 %10, 32
  br i1 %11, label %12, label %_ZNK4Node14is_block_startEv.exit

12:                                               ; preds = %7
  %13 = getelementptr inbounds i8, ptr %1, i64 8
  %14 = load ptr, ptr %13, align 8
  %15 = load ptr, ptr %14, align 8
  %16 = icmp eq ptr %15, %1
  br i1 %16, label %_ZNK8PhaseCFG28is_control_proj_or_safepointEP4Node.exit, label %19

_ZNK4Node14is_block_startEv.exit:                 ; preds = %7
  %17 = and i32 %9, 15
  %18 = icmp eq i32 %17, 9
  br i1 %18, label %_ZNK8PhaseCFG28is_control_proj_or_safepointEP4Node.exit, label %19

19:                                               ; preds = %12, %_ZNK4Node14is_block_startEv.exit
  %20 = and i32 %9, 3
  %21 = icmp eq i32 %20, 2
  br i1 %21, label %22, label %28

22:                                               ; preds = %19
  %23 = load ptr, ptr %1, align 8
  %24 = getelementptr inbounds i8, ptr %23, i64 328
  %25 = load ptr, ptr %24, align 8
  %26 = tail call noundef i32 %25(ptr noundef nonnull align 8 dereferenceable(64) %1) #14
  %27 = icmp eq i32 %26, 300
  br i1 %27, label %_ZNK8PhaseCFG28is_control_proj_or_safepointEP4Node.exit, label %._crit_edge.i

._crit_edge.i:                                    ; preds = %22
  %.pre.i = load i32, ptr %8, align 4
  br label %28

28:                                               ; preds = %._crit_edge.i, %19
  %29 = phi i32 [ %.pre.i, %._crit_edge.i ], [ %9, %19 ]
  %30 = and i32 %29, 15
  %31 = icmp eq i32 %30, 8
  br i1 %31, label %32, label %_ZNK8PhaseCFG28is_control_proj_or_safepointEP4Node.exit

32:                                               ; preds = %28
  %33 = load ptr, ptr %1, align 8
  %34 = getelementptr inbounds i8, ptr %33, i64 40
  %35 = load ptr, ptr %34, align 8
  %36 = tail call noundef ptr %35(ptr noundef nonnull align 8 dereferenceable(57) %1) #14
  %37 = load ptr, ptr @_ZN4Type7CONTROLE, align 8
  %38 = icmp eq ptr %36, %37
  br label %_ZNK8PhaseCFG28is_control_proj_or_safepointEP4Node.exit

_ZNK8PhaseCFG28is_control_proj_or_safepointEP4Node.exit: ; preds = %32, %28, %22, %12, %_ZNK4Node14is_block_startEv.exit, %2
  %39 = phi i1 [ true, %_ZNK4Node14is_block_startEv.exit ], [ true, %2 ], [ true, %12 ], [ true, %22 ], [ false, %28 ], [ %38, %32 ]
  ret i1 %39
}